target datalayout = "e-m:e-p270:32:32-p271:32:32-p272:64:64-i64:64-i128:128-f80:128-n8:16:32:64-S128"
target triple = "x86_64-pc-linux-gnu"

%struct.sentinelRedisInstance = type { i32, ptr, ptr, i64, ptr, ptr, i64, i64, i64, i64, i64, i64, i64, i64, i64, ptr, i32, i64, i64, ptr, ptr, i32, i32, ptr, ptr, i64, i32, i32, i64, ptr, ptr, i32, i32, i64, ptr, i64, i64, i32, i64, i64, i64, i64, ptr, ptr, ptr, ptr }
%struct.sentinelAddr = type { ptr, ptr, i32 }

; Function Attrs: nounwind uwtable
define dso_local void @releaseSentinelAddr(ptr noundef %0) #0 {
  %2 = alloca ptr, align 8
  store ptr %0, ptr %2, align 8, !tbaa !94
  %3 = load ptr, ptr %2, align 8, !tbaa !94
  %4 = getelementptr inbounds nuw %struct.sentinelAddr, ptr %3, i32 0, i32 0
  %5 = load ptr, ptr %4, align 8, !tbaa !95
  call void @sdsfree(ptr noundef %5)
  %6 = load ptr, ptr %2, align 8, !tbaa !94
  %7 = getelementptr inbounds nuw %struct.sentinelAddr, ptr %6, i32 0, i32 1
  %8 = load ptr, ptr %7, align 8, !tbaa !97
  call void @sdsfree(ptr noundef %8)
  %9 = load ptr, ptr %2, align 8, !tbaa !94
  call void @zfree(ptr noundef %9)
  ret void
}

; Function Attrs: nounwind uwtable
define dso_local void @releaseSentinelRedisInstance(ptr noundef %0) #0 {
  %2 = alloca ptr, align 8
  store ptr %0, ptr %2, align 8, !tbaa !11
  %3 = load ptr, ptr %2, align 8, !tbaa !11
  %4 = getelementptr inbounds nuw %struct.sentinelRedisInstance, ptr %3, i32 0, i32 19
  %5 = load ptr, ptr %4, align 8, !tbaa !13
  call void @dictRelease(ptr noundef %5)
  %6 = load ptr, ptr %2, align 8, !tbaa !11
  %7 = getelementptr inbounds nuw %struct.sentinelRedisInstance, ptr %6, i32 0, i32 20
  %8 = load ptr, ptr %7, align 8, !tbaa !21
  call void @dictRelease(ptr noundef %8)
  %9 = load ptr, ptr %2, align 8, !tbaa !11
  %10 = getelementptr inbounds nuw %struct.sentinelRedisInstance, ptr %9, i32 0, i32 5
  %11 = load ptr, ptr %10, align 8, !tbaa !22
  %12 = load ptr, ptr %2, align 8, !tbaa !11
  %13 = call ptr @releaseInstanceLink(ptr noundef %11, ptr noundef %12)
  %14 = load ptr, ptr %2, align 8, !tbaa !11
  %15 = getelementptr inbounds nuw %struct.sentinelRedisInstance, ptr %14, i32 0, i32 1
  %16 = load ptr, ptr %15, align 8, !tbaa !23
  call void @sdsfree(ptr noundef %16)
  %17 = load ptr, ptr %2, align 8, !tbaa !11
  %18 = getelementptr inbounds nuw %struct.sentinelRedisInstance, ptr %17, i32 0, i32 2
  %19 = load ptr, ptr %18, align 8, !tbaa !24
  call void @sdsfree(ptr noundef %19)
  %20 = load ptr, ptr %2, align 8, !tbaa !11
  %21 = getelementptr inbounds nuw %struct.sentinelRedisInstance, ptr %20, i32 0, i32 43
  %22 = load ptr, ptr %21, align 8, !tbaa !25
  call void @sdsfree(ptr noundef %22)
  %23 = load ptr, ptr %2, align 8, !tbaa !11
  %24 = getelementptr inbounds nuw %struct.sentinelRedisInstance, ptr %23, i32 0, i32 44
  %25 = load ptr, ptr %24, align 8, !tbaa !26
  call void @sdsfree(ptr noundef %25)
  %26 = load ptr, ptr %2, align 8, !tbaa !11
  %27 = getelementptr inbounds nuw %struct.sentinelRedisInstance, ptr %26, i32 0, i32 30
  %28 = load ptr, ptr %27, align 8, !tbaa !27
  call void @sdsfree(ptr noundef %28)
  %29 = load ptr, ptr %2, align 8, !tbaa !11
  %30 = getelementptr inbounds nuw %struct.sentinelRedisInstance, ptr %29, i32 0, i32 34
  %31 = load ptr, ptr %30, align 8, !tbaa !28
  call void @sdsfree(ptr noundef %31)
  %32 = load ptr, ptr %2, align 8, !tbaa !11
  %33 = getelementptr inbounds nuw %struct.sentinelRedisInstance, ptr %32, i32 0, i32 23
  %34 = load ptr, ptr %33, align 8, !tbaa !29
  call void @sdsfree(ptr noundef %34)
  %35 = load ptr, ptr %2, align 8, !tbaa !11
  %36 = getelementptr inbounds nuw %struct.sentinelRedisInstance, ptr %35, i32 0, i32 24
  %37 = load ptr, ptr %36, align 8, !tbaa !30
  call void @sdsfree(ptr noundef %37)
  %38 = load ptr, ptr %2, align 8, !tbaa !11
  %39 = getelementptr inbounds nuw %struct.sentinelRedisInstance, ptr %38, i32 0, i32 45
  %40 = load ptr, ptr %39, align 8, !tbaa !31
  call void @sdsfree(ptr noundef %40)
  %41 = load ptr, ptr %2, align 8, !tbaa !11
  %42 = getelementptr inbounds nuw %struct.sentinelRedisInstance, ptr %41, i32 0, i32 4
  %43 = load ptr, ptr %42, align 8, !tbaa !32
  call void @releaseSentinelAddr(ptr noundef %43)
  %44 = load ptr, ptr %2, align 8, !tbaa !11
  %45 = getelementptr inbounds nuw %struct.sentinelRedisInstance, ptr %44, i32 0, i32 15
  %46 = load ptr, ptr %45, align 8, !tbaa !33
  call void @dictRelease(ptr noundef %46)
  %47 = load ptr, ptr %2, align 8, !tbaa !11
  %48 = getelementptr inbounds nuw %struct.sentinelRedisInstance, ptr %47, i32 0, i32 0
  %49 = load i32, ptr %48, align 8, !tbaa !34
  %50 = and i32 %49, 2
  %51 = icmp ne i32 %50, 0
  br i1 %51, label %52, label %68

52:                                               ; preds = %1
  %53 = load ptr, ptr %2, align 8, !tbaa !11
  %54 = getelementptr inbounds nuw %struct.sentinelRedisInstance, ptr %53, i32 0, i32 0
  %55 = load i32, ptr %54, align 8, !tbaa !34
  %56 = and i32 %55, 128
  %57 = icmp ne i32 %56, 0
  br i1 %57, label %58, label %68

58:                                               ; preds = %52
  %59 = load ptr, ptr %2, align 8, !tbaa !11
  %60 = getelementptr inbounds nuw %struct.sentinelRedisInstance, ptr %59, i32 0, i32 29
  %61 = load ptr, ptr %60, align 8, !tbaa !35
  %62 = icmp ne ptr %61, null
  br i1 %62, label %63, label %68

63:                                               ; preds = %58
  %64 = load ptr, ptr %2, align 8, !tbaa !11
  %65 = getelementptr inbounds nuw %struct.sentinelRedisInstance, ptr %64, i32 0, i32 29
  %66 = load ptr, ptr %65, align 8, !tbaa !35
  %67 = getelementptr inbounds nuw %struct.sentinelRedisInstance, ptr %66, i32 0, i32 42
  store ptr null, ptr %67, align 8, !tbaa !36
  br label %68

68:                                               ; preds = %63, %58, %52, %1
  %69 = load ptr, ptr %2, align 8, !tbaa !11
  call void @zfree(ptr noundef %69)
  ret void
}