; Function Attrs: nounwind uwtable
define dso_local void @releaseSentinelRedisInstance(ptr noundef %0) local_unnamed_addr #0 {
  %2 = getelementptr inbounds nuw i8, ptr %0, i64 152
  %3 = load ptr, ptr %2, align 8, !tbaa !5
  tail call void @dictRelease(ptr noundef %3) #30
  %4 = getelementptr inbounds nuw i8, ptr %0, i64 160
  %5 = load ptr, ptr %4, align 8, !tbaa !18
  tail call void @dictRelease(ptr noundef %5) #30
  %6 = getelementptr inbounds nuw i8, ptr %0, i64 40
  %7 = load ptr, ptr %6, align 8, !tbaa !19
  %8 = tail call ptr @releaseInstanceLink(ptr noundef %7, ptr noundef %0)
  %9 = getelementptr inbounds nuw i8, ptr %0, i64 8
  %10 = load ptr, ptr %9, align 8, !tbaa !20
  tail call void @sdsfree(ptr noundef %10) #30
  %11 = getelementptr inbounds nuw i8, ptr %0, i64 16
  %12 = load ptr, ptr %11, align 8, !tbaa !21
  tail call void @sdsfree(ptr noundef %12) #30
  %13 = getelementptr inbounds nuw i8, ptr %0, i64 320
  %14 = load ptr, ptr %13, align 8, !tbaa !22
  tail call void @sdsfree(ptr noundef %14) #30
  %15 = getelementptr inbounds nuw i8, ptr %0, i64 328
  %16 = load ptr, ptr %15, align 8, !tbaa !23
  tail call void @sdsfree(ptr noundef %16) #30
  %17 = getelementptr inbounds nuw i8, ptr %0, i64 224
  %18 = load ptr, ptr %17, align 8, !tbaa !24
  tail call void @sdsfree(ptr noundef %18) #30
  %19 = getelementptr inbounds nuw i8, ptr %0, i64 248
  %20 = load ptr, ptr %19, align 8, !tbaa !25
  tail call void @sdsfree(ptr noundef %20) #30
  %21 = getelementptr inbounds nuw i8, ptr %0, i64 176
  %22 = load ptr, ptr %21, align 8, !tbaa !26
  tail call void @sdsfree(ptr noundef %22) #30
  %23 = getelementptr inbounds nuw i8, ptr %0, i64 184
  %24 = load ptr, ptr %23, align 8, !tbaa !27
  tail call void @sdsfree(ptr noundef %24) #30
  %25 = getelementptr inbounds nuw i8, ptr %0, i64 336
  %26 = load ptr, ptr %25, align 8, !tbaa !28
  tail call void @sdsfree(ptr noundef %26) #30
  %27 = getelementptr inbounds nuw i8, ptr %0, i64 32
  %28 = load ptr, ptr %27, align 8, !tbaa !29
  %29 = load ptr, ptr %28, align 8, !tbaa !30
  tail call void @sdsfree(ptr noundef %29) #30
  %30 = getelementptr inbounds nuw i8, ptr %28, i64 8
  %31 = load ptr, ptr %30, align 8, !tbaa !32
  tail call void @sdsfree(ptr noundef %31) #30
  tail call void @zfree(ptr noundef nonnull %28) #30
  %32 = getelementptr inbounds nuw i8, ptr %0, i64 120
  %33 = load ptr, ptr %32, align 8, !tbaa !33
  tail call void @dictRelease(ptr noundef %33) #30
  %34 = load i32, ptr %0, align 8, !tbaa !34
  %35 = and i32 %34, 130
  %or.cond.not = icmp eq i32 %35, 130
  br i1 %or.cond.not, label %36, label %41

36:                                               ; preds = %1
  %37 = getelementptr inbounds nuw i8, ptr %0, i64 216
  %38 = load ptr, ptr %37, align 8, !tbaa !35
  %.not21 = icmp eq ptr %38, null
  br i1 %.not21, label %41, label %39

39:                                               ; preds = %36
  %40 = getelementptr inbounds nuw i8, ptr %38, i64 312
  store ptr null, ptr %40, align 8, !tbaa !36
  br label %41

41:                                               ; preds = %39, %36, %1
  tail call void @zfree(ptr noundef nonnull %0) #30
  ret void
}